; Function Attrs: null_pointer_is_valid sspstrong uwtable
define internal i32 @dissect_camel_T_pDPTypeOrganization(i1 noundef zeroext %0, ptr noundef %1, i32 noundef %2, ptr noundef %3, ptr noundef %4, i32 noundef %5) #0 {
  %7 = alloca ptr, align 8
  call void @llvm.lifetime.start.p0(i64 8, ptr nonnull %7) #12
  %8 = call i32 @dissect_ber_octet_string(i1 noundef zeroext %0, ptr noundef %3, ptr noundef %4, ptr noundef %1, i32 noundef %2, i32 noundef %5, ptr noundef nonnull %7)
  %9 = load ptr, ptr %7, align 8
  %.not = icmp eq ptr %9, null
  br i1 %.not, label %13, label %10

10:                                               ; preds = %6
  %11 = call zeroext i8 @tvb_get_uint8(ptr noundef nonnull %9, i32 noundef 0)
  %12 = and i8 %11, 15
  store i8 %12, ptr @PDPTypeOrganization, align 1
  br label %13

13:                                               ; preds = %6, %10
  call void @llvm.lifetime.end.p0(i64 8, ptr nonnull %7) #12
  ret i32 %8
}